target datalayout = "e-m:e-p270:32:32-p271:32:32-p272:64:64-i64:64-i128:128-f80:128-n8:16:32:64-S128"
target triple = "x86_64-pc-linux-gnu"

%"class.std::__cxx11::basic_string" = type { %"struct.std::__cxx11::basic_string<char>::_Alloc_hider", i64, %union.anon.8 }
%"struct.std::__cxx11::basic_string<char>::_Alloc_hider" = type { ptr }
%union.anon.8 = type { i64, [8 x i8] }
%"class.llvm::ArrayRef.98" = type { ptr, i64 }

; Function Attrs: mustprogress nounwind uwtable
define linkonce_odr hidden noundef ptr @_ZN4llvm6unwrapEP16LLVMOpaqueModule(ptr noundef %0) #0 comdat {
  %2 = alloca ptr, align 8
  store ptr %0, ptr %2, align 8
  %3 = load ptr, ptr %2, align 8
  ret ptr %3
}

; Function Attrs: mustprogress nounwind uwtable
define linkonce_odr hidden void @_ZN4llvm8ArrayRefIPNS_4TypeEEC2EPKS2_m(ptr noundef nonnull align 8 dereferenceable(16) %0, ptr noundef %1, i64 noundef %2) unnamed_addr #0 comdat align 2 {
  %4 = alloca ptr, align 8
  %5 = alloca ptr, align 8
  %6 = alloca i64, align 8
  store ptr %0, ptr %4, align 8
  store ptr %1, ptr %5, align 8
  store i64 %2, ptr %6, align 8
  %7 = load ptr, ptr %4, align 8
  %8 = getelementptr inbounds nuw %"class.llvm::ArrayRef.98", ptr %7, i32 0, i32 0
  %9 = load ptr, ptr %5, align 8
  store ptr %9, ptr %8, align 8
  %10 = getelementptr inbounds nuw %"class.llvm::ArrayRef.98", ptr %7, i32 0, i32 1
  %11 = load i64, ptr %6, align 8
  store i64 %11, ptr %10, align 8
  ret void
}

; Function Attrs: mustprogress nounwind uwtable
define linkonce_odr hidden noundef ptr @_ZN4llvm6unwrapEPP14LLVMOpaqueType(ptr noundef %0) #0 comdat {
  %2 = alloca ptr, align 8
  store ptr %0, ptr %2, align 8
  %3 = load ptr, ptr %2, align 8
  ret ptr %3
}

; Function Attrs: mustprogress nounwind uwtable
define internal noundef i32 @_ZL24llvm_map_to_intrinsic_idj(i32 noundef %0) #0 {
  %2 = alloca i32, align 4
  store i32 %0, ptr %2, align 4
  %3 = load i32, ptr %2, align 4
  ret i32 %3
}

; Function Attrs: mustprogress nounwind uwtable
define dso_local ptr @LLVMIntrinsicCopyOverloadedName2(ptr noundef %0, i32 noundef %1, ptr noundef %2, i64 noundef %3, ptr noundef %4) #0 {
  %6 = alloca ptr, align 8
  %7 = alloca i32, align 4
  %8 = alloca ptr, align 8
  %9 = alloca i64, align 8
  %10 = alloca ptr, align 8
  %11 = alloca i32, align 4
  %12 = alloca %"class.llvm::ArrayRef.98", align 8
  %13 = alloca %"class.std::__cxx11::basic_string", align 8
  %14 = alloca %"class.llvm::ArrayRef.98", align 8
  store ptr %0, ptr %6, align 8
  store i32 %1, ptr %7, align 4
  store ptr %2, ptr %8, align 8
  store i64 %3, ptr %9, align 8
  store ptr %4, ptr %10, align 8
  %15 = load i32, ptr %7, align 4
  %16 = call noundef i32 @_ZL24llvm_map_to_intrinsic_idj(i32 noundef %15)
  store i32 %16, ptr %11, align 4
  %17 = load ptr, ptr %8, align 8
  %18 = call noundef ptr @_ZN4llvm6unwrapEPP14LLVMOpaqueType(ptr noundef %17)
  %19 = load i64, ptr %9, align 8
  call void @_ZN4llvm8ArrayRefIPNS_4TypeEEC2EPKS2_m(ptr noundef nonnull align 8 dereferenceable(16) %12, ptr noundef %18, i64 noundef %19)
  %20 = load i32, ptr %11, align 4
  call void @llvm.memcpy.p0.p0.i64(ptr align 8 %14, ptr align 8 %12, i64 16, i1 false)
  %21 = load ptr, ptr %6, align 8
  %22 = call noundef ptr @_ZN4llvm6unwrapEP16LLVMOpaqueModule(ptr noundef %21)
  %23 = getelementptr inbounds nuw { ptr, i64 }, ptr %14, i32 0, i32 0
  %24 = load ptr, ptr %23, align 8
  %25 = getelementptr inbounds nuw { ptr, i64 }, ptr %14, i32 0, i32 1
  %26 = load i64, ptr %25, align 8
  call void @_ZN4llvm9Intrinsic7getNameB5cxx11EjNS_8ArrayRefIPNS_4TypeEEEPNS_6ModuleEPNS_12FunctionTypeE(ptr dead_on_unwind writable sret(%"class.std::__cxx11::basic_string") align 8 %13, i32 noundef %20, ptr %24, i64 %26, ptr noundef %22, ptr noundef null)
  %27 = call noundef i64 @_ZNKSt7__cxx1112basic_stringIcSt11char_traitsIcESaIcEE6lengthEv(ptr noundef nonnull align 8 dereferenceable(32) %13) #10
  %28 = load ptr, ptr %10, align 8
  store i64 %27, ptr %28, align 8
  %29 = call noundef ptr @_ZNKSt7__cxx1112basic_stringIcSt11char_traitsIcESaIcEE5c_strEv(ptr noundef nonnull align 8 dereferenceable(32) %13) #10
  %30 = call noalias ptr @strdup(ptr noundef %29) #10
  call void @_ZNSt7__cxx1112basic_stringIcSt11char_traitsIcESaIcEED1Ev(ptr noundef nonnull align 8 dereferenceable(32) %13) #10
  ret ptr %30
}