; Function Attrs: mustprogress nounwind uwtable
define dso_local noalias ptr @LLVMIntrinsicCopyOverloadedName2(ptr noundef %0, i32 noundef %1, ptr noundef %2, i64 noundef %3, ptr noundef writeonly captures(none) initializes((0, 8)) %4) local_unnamed_addr #0 {
  %6 = alloca %"class.std::__cxx11::basic_string", align 8
  call void @_ZN4llvm9Intrinsic7getNameB5cxx11EjNS_8ArrayRefIPNS_4TypeEEEPNS_6ModuleEPNS_12FunctionTypeE(ptr dead_on_unwind nonnull writable sret(%"class.std::__cxx11::basic_string") align 8 %6, i32 noundef %1, ptr %2, i64 %3, ptr noundef %0, ptr noundef null) #35
  %7 = call noundef i64 @_ZNKSt7__cxx1112basic_stringIcSt11char_traitsIcESaIcEE6lengthEv(ptr noundef nonnull align 8 dereferenceable(32) %6) #35
  store i64 %7, ptr %4, align 8
  %8 = call noundef ptr @_ZNKSt7__cxx1112basic_stringIcSt11char_traitsIcESaIcEE5c_strEv(ptr noundef nonnull align 8 dereferenceable(32) %6) #35
  %9 = call noalias ptr @strdup(ptr noundef %8) #35
  call void @_ZNSt7__cxx1112basic_stringIcSt11char_traitsIcESaIcEED1Ev(ptr noundef nonnull align 8 dereferenceable(32) %6) #35
  ret ptr %9
}